target datalayout = "e-m:e-p270:32:32-p271:32:32-p272:64:64-i64:64-i128:128-f80:128-n8:16:32:64-S128"
target triple = "x86_64-pc-linux-gnu"

; Function Attrs: inlinehint mustprogress nounwind uwtable
define internal noundef double @_ZN2cv12cpu_baselineL8dotProd_IiEEdPKT_S4_i(ptr noundef %0, ptr noundef %1, i32 noundef %2) #7 {
  %4 = alloca ptr, align 8
  %5 = alloca ptr, align 8
  %6 = alloca i32, align 4
  %7 = alloca i32, align 4
  %8 = alloca double, align 8
  store ptr %0, ptr %4, align 8, !tbaa !28
  store ptr %1, ptr %5, align 8, !tbaa !28
  store i32 %2, ptr %6, align 4, !tbaa !12
  call void @llvm.lifetime.start.p0(i64 4, ptr %7) #3
  store i32 0, ptr %7, align 4, !tbaa !12
  call void @llvm.lifetime.start.p0(i64 8, ptr %8) #3
  store double 0.000000e+00, ptr %8, align 8, !tbaa !21
  br label %9

9:                                                ; preds = %28, %3
  %10 = load i32, ptr %7, align 4, !tbaa !12
  %11 = load i32, ptr %6, align 4, !tbaa !12
  %12 = icmp slt i32 %10, %11
  br i1 %12, label %13, label %31

13:                                               ; preds = %9
  %14 = load ptr, ptr %4, align 8, !tbaa !28
  %15 = load i32, ptr %7, align 4, !tbaa !12
  %16 = sext i32 %15 to i64
  %17 = getelementptr inbounds i32, ptr %14, i64 %16
  %18 = load i32, ptr %17, align 4, !tbaa !12
  %19 = sitofp i32 %18 to double
  %20 = load ptr, ptr %5, align 8, !tbaa !28
  %21 = load i32, ptr %7, align 4, !tbaa !12
  %22 = sext i32 %21 to i64
  %23 = getelementptr inbounds i32, ptr %20, i64 %22
  %24 = load i32, ptr %23, align 4, !tbaa !12
  %25 = sitofp i32 %24 to double
  %26 = load double, ptr %8, align 8, !tbaa !21
  %27 = call double @llvm.fmuladd.f64(double %19, double %25, double %26)
  store double %27, ptr %8, align 8, !tbaa !21
  br label %28

28:                                               ; preds = %13
  %29 = load i32, ptr %7, align 4, !tbaa !12
  %30 = add nsw i32 %29, 1
  store i32 %30, ptr %7, align 4, !tbaa !12
  br label %9, !llvm.loop !285

31:                                               ; preds = %9
  %32 = load double, ptr %8, align 8, !tbaa !21
  call void @llvm.lifetime.end.p0(i64 8, ptr %8) #3
  call void @llvm.lifetime.end.p0(i64 4, ptr %7) #3
  ret double %32
}

; Function Attrs: mustprogress uwtable
define hidden noundef double @_ZN2cv12cpu_baseline11dotProd_32sEPKiS2_i(ptr noundef %0, ptr noundef %1, i32 noundef %2) #4 {
  %4 = alloca ptr, align 8
  %5 = alloca ptr, align 8
  %6 = alloca i32, align 4
  store ptr %0, ptr %4, align 8, !tbaa !28
  store ptr %1, ptr %5, align 8, !tbaa !28
  store i32 %2, ptr %6, align 4, !tbaa !12
  %7 = load ptr, ptr %4, align 8, !tbaa !28
  %8 = load ptr, ptr %5, align 8, !tbaa !28
  %9 = load i32, ptr %6, align 4, !tbaa !12
  %10 = call noundef double @_ZN2cv12cpu_baselineL8dotProd_IiEEdPKT_S4_i(ptr noundef %7, ptr noundef %8, i32 noundef %9)
  ret double %10
}