; Function Attrs: mustprogress nofree norecurse nosync nounwind willreturn memory(argmem: read) uwtable
define hidden noundef double @_ZN2cv12cpu_baseline11dotProd_32sEPKiS2_i(ptr noundef readonly captures(none) %0, ptr noundef readonly captures(none) %1, i32 noundef %2) local_unnamed_addr #11 {
  %4 = icmp sgt i32 %2, 0
  br i1 %4, label %.lr.ph.preheader.i, label %_ZN2cv12cpu_baselineL8dotProd_IiEEdPKT_S4_i.exit

.lr.ph.preheader.i:                               ; preds = %3
  %wide.trip.count.i = zext nneg i32 %2 to i64
  br label %.lr.ph.i

.lr.ph.i:                                         ; preds = %.lr.ph.i, %.lr.ph.preheader.i
  %indvars.iv.i = phi i64 [ 0, %.lr.ph.preheader.i ], [ %indvars.iv.next.i, %.lr.ph.i ]
  %.010.i = phi double [ 0.000000e+00, %.lr.ph.preheader.i ], [ %11, %.lr.ph.i ]
  %5 = getelementptr inbounds nuw i32, ptr %0, i64 %indvars.iv.i
  %6 = load i32, ptr %5, align 4, !tbaa !47
  %7 = sitofp i32 %6 to double
  %8 = getelementptr inbounds nuw i32, ptr %1, i64 %indvars.iv.i
  %9 = load i32, ptr %8, align 4, !tbaa !47
  %10 = sitofp i32 %9 to double
  %11 = tail call double @llvm.fmuladd.f64(double %7, double %10, double %.010.i)
  %indvars.iv.next.i = add nuw nsw i64 %indvars.iv.i, 1
  %exitcond.not.i = icmp eq i64 %indvars.iv.next.i, %wide.trip.count.i
  br i1 %exitcond.not.i, label %_ZN2cv12cpu_baselineL8dotProd_IiEEdPKT_S4_i.exit, label %.lr.ph.i, !llvm.loop !370

_ZN2cv12cpu_baselineL8dotProd_IiEEdPKT_S4_i.exit: ; preds = %.lr.ph.i, %3
  %.0.lcssa.i = phi double [ 0.000000e+00, %3 ], [ %11, %.lr.ph.i ]
  ret double %.0.lcssa.i
}